; Function Attrs: mustprogress nounwind uwtable
define void @_ZN4toku16locktree_manager18locktree_escalator6createEv(ptr noundef nonnull align 8 dereferenceable(105) initializes((0, 48)) %0) local_unnamed_addr #2 align 2 {
  tail call void @llvm.memset.p0.i64(ptr noundef nonnull align 8 dereferenceable(48) %0, i8 0, i64 48, i1 false)
  %2 = tail call i32 @pthread_mutex_init(ptr noundef nonnull %0, ptr noundef null) #14
  %3 = getelementptr inbounds nuw i8, ptr %0, i64 48
  %4 = tail call i32 @pthread_cond_init(ptr noundef nonnull %3, ptr noundef null) #14
  %5 = getelementptr inbounds nuw i8, ptr %0, i64 104
  store i8 0, ptr %5, align 8, !tbaa !41
  ret void
}